; Function Attrs: mustprogress uwtable
define void @_ZN11TrafficTree10disableTapEv(ptr noundef nonnull align 8 dereferenceable(88) %0) local_unnamed_addr #0 align 2 {
  %2 = tail call noundef ptr @_ZNK17QAbstractItemView5modelEv(ptr noundef nonnull align 8 dereferenceable(40) %0)
  %3 = tail call noundef ptr @_ZNK11QMetaObject4castEPK7QObject(ptr noundef nonnull align 8 dereferenceable(56) @_ZN21QSortFilterProxyModel16staticMetaObjectE, ptr noundef %2)
  %.not.i = icmp eq ptr %3, null
  br i1 %.not.i, label %_ZN11TrafficTree9dataModelEv.exit.thread, label %_ZN11TrafficTree9dataModelEv.exit

_ZN11TrafficTree9dataModelEv.exit:                ; preds = %1
  %4 = tail call noundef ptr @_ZNK19QAbstractProxyModel11sourceModelEv(ptr noundef nonnull align 8 dereferenceable(16) %3)
  %5 = tail call noundef ptr @_ZNK11QMetaObject4castEPK7QObject(ptr noundef nonnull align 8 dereferenceable(56) @_ZN13ATapDataModel16staticMetaObjectE, ptr noundef %4)
  %.not = icmp eq ptr %5, null
  br i1 %.not, label %_ZN11TrafficTree9dataModelEv.exit.thread, label %6

6:                                                ; preds = %_ZN11TrafficTree9dataModelEv.exit
  tail call void @_ZN13ATapDataModel10disableTapEv(ptr noundef nonnull align 8 dereferenceable(120) %5)
  br label %_ZN11TrafficTree9dataModelEv.exit.thread

_ZN11TrafficTree9dataModelEv.exit.thread:         ; preds = %1, %_ZN11TrafficTree9dataModelEv.exit, %6
  ret void
}